target datalayout = "e-m:e-p270:32:32-p271:32:32-p272:64:64-i64:64-i128:128-f80:128-n8:16:32:64-S128"
target triple = "x86_64-unknown-linux-gnu"

%"class.std::__cxx11::basic_string" = type { %"struct.std::__cxx11::basic_string<char>::_Alloc_hider", i64, %union.anon }
%"struct.std::__cxx11::basic_string<char>::_Alloc_hider" = type { ptr }
%union.anon = type { i64, [8 x i8] }
%"class.OpenColorIO_v2_4dev::XmlReaderElement" = type { ptr, %"class.std::__cxx11::basic_string", i32, %"class.std::__cxx11::basic_string" }

; Function Attrs: mustprogress uwtable
define hidden void @_ZN19OpenColorIO_v2_4dev16XmlReaderElement10setContextERKNSt7__cxx1112basic_stringIcSt11char_traitsIcESaIcEEEjS8_(ptr noundef nonnull align 8 dereferenceable(80) %this, ptr noundef nonnull align 8 dereferenceable(32) %name, i32 noundef %xmlLineNumber, ptr noundef nonnull align 8 dereferenceable(32) %xmlFile) #5 align 2 {
entry:
  %this.addr = alloca ptr, align 8
  %name.addr = alloca ptr, align 8
  %xmlLineNumber.addr = alloca i32, align 4
  %xmlFile.addr = alloca ptr, align 8
  store ptr %this, ptr %this.addr, align 8
  store ptr %name, ptr %name.addr, align 8
  store i32 %xmlLineNumber, ptr %xmlLineNumber.addr, align 4
  store ptr %xmlFile, ptr %xmlFile.addr, align 8
  %this1 = load ptr, ptr %this.addr, align 8
  %0 = load ptr, ptr %name.addr, align 8
  %m_name = getelementptr inbounds %"class.OpenColorIO_v2_4dev::XmlReaderElement", ptr %this1, i32 0, i32 1
  %call = call noundef nonnull align 8 dereferenceable(32) ptr @_ZNSt7__cxx1112basic_stringIcSt11char_traitsIcESaIcEEaSERKS4_(ptr noundef nonnull align 8 dereferenceable(32) %m_name, ptr noundef nonnull align 8 dereferenceable(32) %0)
  %1 = load i32, ptr %xmlLineNumber.addr, align 4
  %m_xmlLineNumber = getelementptr inbounds %"class.OpenColorIO_v2_4dev::XmlReaderElement", ptr %this1, i32 0, i32 2
  store i32 %1, ptr %m_xmlLineNumber, align 8
  %2 = load ptr, ptr %xmlFile.addr, align 8
  %m_xmlFile = getelementptr inbounds %"class.OpenColorIO_v2_4dev::XmlReaderElement", ptr %this1, i32 0, i32 3
  %call2 = call noundef nonnull align 8 dereferenceable(32) ptr @_ZNSt7__cxx1112basic_stringIcSt11char_traitsIcESaIcEEaSERKS4_(ptr noundef nonnull align 8 dereferenceable(32) %m_xmlFile, ptr noundef nonnull align 8 dereferenceable(32) %2)
  ret void
}