; Function Attrs: mustprogress uwtable
define hidden void @_ZN19OpenColorIO_v2_4dev16XmlReaderElement10setContextERKNSt7__cxx1112basic_stringIcSt11char_traitsIcESaIcEEEjS8_(ptr noundef nonnull align 8 dereferenceable(80) %this, ptr noundef nonnull align 8 dereferenceable(32) %name, i32 noundef %xmlLineNumber, ptr noundef nonnull align 8 dereferenceable(32) %xmlFile) local_unnamed_addr #4 align 2 {
entry:
  %m_name = getelementptr inbounds i8, ptr %this, i64 8
  %call = tail call noundef nonnull align 8 dereferenceable(32) ptr @_ZNSt7__cxx1112basic_stringIcSt11char_traitsIcESaIcEEaSERKS4_(ptr noundef nonnull align 8 dereferenceable(32) %m_name, ptr noundef nonnull align 8 dereferenceable(32) %name)
  %m_xmlLineNumber = getelementptr inbounds i8, ptr %this, i64 40
  store i32 %xmlLineNumber, ptr %m_xmlLineNumber, align 8
  %m_xmlFile = getelementptr inbounds i8, ptr %this, i64 48
  %call2 = tail call noundef nonnull align 8 dereferenceable(32) ptr @_ZNSt7__cxx1112basic_stringIcSt11char_traitsIcESaIcEEaSERKS4_(ptr noundef nonnull align 8 dereferenceable(32) %m_xmlFile, ptr noundef nonnull align 8 dereferenceable(32) %xmlFile)
  ret void
}